target datalayout = "e-m:e-p270:32:32-p271:32:32-p272:64:64-i64:64-i128:128-f80:128-n8:16:32:64-S128"
target triple = "x86_64-pc-linux-gnu"

%"class.gmx::AbstractPlotModule" = type { %"class.gmx::AnalysisDataModuleSerial", %"class.std::unique_ptr.26" }
%"class.gmx::AnalysisDataModuleSerial" = type { %"class.gmx::IAnalysisDataModule" }
%"class.gmx::IAnalysisDataModule" = type { ptr }
%"class.std::unique_ptr.26" = type { %"struct.std::__uniq_ptr_data.27" }
%"struct.std::__uniq_ptr_data.27" = type { %"class.std::__uniq_ptr_impl.28" }
%"class.std::__uniq_ptr_impl.28" = type { %"class.std::tuple.29" }
%"class.std::tuple.29" = type { %"struct.std::_Tuple_impl.30" }
%"struct.std::_Tuple_impl.30" = type { %"struct.std::_Head_base.33" }
%"struct.std::_Head_base.33" = type { ptr }

@_ZTVN3gmx24AnalysisDataModuleSerialE = external unnamed_addr constant { [12 x ptr] }, align 8
@_ZN3gmx18AbstractPlotModule4ImplC1ERKNS_24AnalysisDataPlotSettingsE = unnamed_addr alias void (ptr, ptr), ptr @_ZN3gmx18AbstractPlotModule4ImplC2ERKNS_24AnalysisDataPlotSettingsE

; Function Attrs: mustprogress nounwind uwtable
define linkonce_odr noundef nonnull align 8 dereferenceable(8) ptr @_ZNSt10_Head_baseILm0EPN3gmx18AbstractPlotModule4ImplELb0EE7_M_headERS4_(ptr noundef nonnull align 8 dereferenceable(8) %0) #0 comdat align 2 {
  %2 = alloca ptr, align 8
  store ptr %0, ptr %2, align 8, !tbaa !259
  %3 = load ptr, ptr %2, align 8, !tbaa !259
  %4 = getelementptr inbounds nuw %"struct.std::_Head_base.33", ptr %3, i32 0, i32 0
  ret ptr %4
}

; Function Attrs: mustprogress nounwind uwtable
define linkonce_odr noundef nonnull align 8 dereferenceable(8) ptr @_ZNSt11_Tuple_implILm0EJPN3gmx18AbstractPlotModule4ImplESt14default_deleteIS2_EEE7_M_headERS6_(ptr noundef nonnull align 8 dereferenceable(8) %0) #0 comdat align 2 {
  %2 = alloca ptr, align 8
  store ptr %0, ptr %2, align 8, !tbaa !255
  %3 = load ptr, ptr %2, align 8, !tbaa !255
  %4 = call noundef nonnull align 8 dereferenceable(8) ptr @_ZNSt10_Head_baseILm0EPN3gmx18AbstractPlotModule4ImplELb0EE7_M_headERS4_(ptr noundef nonnull align 8 dereferenceable(8) %3) #21
  ret ptr %4
}

; Function Attrs: mustprogress nounwind uwtable
define linkonce_odr void @_ZNSt10_Head_baseILm1ESt14default_deleteIN3gmx18AbstractPlotModule4ImplEELb1EEC2Ev(ptr noundef nonnull align 1 dereferenceable(1) %0) unnamed_addr #0 comdat align 2 {
  %2 = alloca ptr, align 8
  store ptr %0, ptr %2, align 8, !tbaa !263
  ret void
}

; Function Attrs: mustprogress nounwind uwtable
define linkonce_odr noundef nonnull align 8 dereferenceable(8) ptr @_ZSt12__get_helperILm0EPN3gmx18AbstractPlotModule4ImplEJSt14default_deleteIS2_EEERT0_RSt11_Tuple_implIXT_EJS6_DpT1_EE(ptr noundef nonnull align 8 dereferenceable(8) %0) #0 comdat {
  %2 = alloca ptr, align 8
  store ptr %0, ptr %2, align 8, !tbaa !255
  %3 = load ptr, ptr %2, align 8, !tbaa !255
  %4 = call noundef nonnull align 8 dereferenceable(8) ptr @_ZNSt11_Tuple_implILm0EJPN3gmx18AbstractPlotModule4ImplESt14default_deleteIS2_EEE7_M_headERS6_(ptr noundef nonnull align 8 dereferenceable(8) %3) #21
  ret ptr %4
}

; Function Attrs: mustprogress nounwind uwtable
define linkonce_odr void @_ZNSt10_Head_baseILm0EPN3gmx18AbstractPlotModule4ImplELb0EEC2Ev(ptr noundef nonnull align 8 dereferenceable(8) %0) unnamed_addr #0 comdat align 2 {
  %2 = alloca ptr, align 8
  store ptr %0, ptr %2, align 8, !tbaa !259
  %3 = load ptr, ptr %2, align 8
  %4 = getelementptr inbounds nuw %"struct.std::_Head_base.33", ptr %3, i32 0, i32 0
  store ptr null, ptr %4, align 8, !tbaa !261
  ret void
}

; Function Attrs: mustprogress uwtable
define linkonce_odr void @_ZNSt11_Tuple_implILm1EJSt14default_deleteIN3gmx18AbstractPlotModule4ImplEEEEC2Ev(ptr noundef nonnull align 1 dereferenceable(1) %0) unnamed_addr #1 comdat align 2 {
  %2 = alloca ptr, align 8
  store ptr %0, ptr %2, align 8, !tbaa !257
  %3 = load ptr, ptr %2, align 8
  call void @_ZNSt10_Head_baseILm1ESt14default_deleteIN3gmx18AbstractPlotModule4ImplEELb1EEC2Ev(ptr noundef nonnull align 1 dereferenceable(1) %3)
  ret void
}

; Function Attrs: mustprogress nounwind uwtable
define linkonce_odr noundef nonnull align 8 dereferenceable(8) ptr @_ZSt3getILm0EJPN3gmx18AbstractPlotModule4ImplESt14default_deleteIS2_EEERNSt13tuple_elementIXT_ESt5tupleIJDpT0_EEE4typeERSA_(ptr noundef nonnull align 8 dereferenceable(8) %0) #0 comdat {
  %2 = alloca ptr, align 8
  store ptr %0, ptr %2, align 8, !tbaa !253
  %3 = load ptr, ptr %2, align 8, !tbaa !253
  %4 = call noundef nonnull align 8 dereferenceable(8) ptr @_ZSt12__get_helperILm0EPN3gmx18AbstractPlotModule4ImplEJSt14default_deleteIS2_EEERT0_RSt11_Tuple_implIXT_EJS6_DpT1_EE(ptr noundef nonnull align 8 dereferenceable(8) %3) #21
  ret ptr %4
}

; Function Attrs: mustprogress uwtable
define linkonce_odr void @_ZNSt11_Tuple_implILm0EJPN3gmx18AbstractPlotModule4ImplESt14default_deleteIS2_EEEC2Ev(ptr noundef nonnull align 8 dereferenceable(8) %0) unnamed_addr #1 comdat align 2 {
  %2 = alloca ptr, align 8
  store ptr %0, ptr %2, align 8, !tbaa !255
  %3 = load ptr, ptr %2, align 8
  call void @_ZNSt11_Tuple_implILm1EJSt14default_deleteIN3gmx18AbstractPlotModule4ImplEEEEC2Ev(ptr noundef nonnull align 1 dereferenceable(1) %3)
  call void @_ZNSt10_Head_baseILm0EPN3gmx18AbstractPlotModule4ImplELb0EEC2Ev(ptr noundef nonnull align 8 dereferenceable(8) %3)
  ret void
}

; Function Attrs: mustprogress nounwind uwtable
define linkonce_odr noundef nonnull align 8 dereferenceable(8) ptr @_ZNSt15__uniq_ptr_implIN3gmx18AbstractPlotModule4ImplESt14default_deleteIS2_EE6_M_ptrEv(ptr noundef nonnull align 8 dereferenceable(8) %0) #0 comdat align 2 {
  %2 = alloca ptr, align 8
  store ptr %0, ptr %2, align 8, !tbaa !251
  %3 = load ptr, ptr %2, align 8
  %4 = getelementptr inbounds nuw %"class.std::__uniq_ptr_impl.28", ptr %3, i32 0, i32 0
  %5 = call noundef nonnull align 8 dereferenceable(8) ptr @_ZSt3getILm0EJPN3gmx18AbstractPlotModule4ImplESt14default_deleteIS2_EEERNSt13tuple_elementIXT_ESt5tupleIJDpT0_EEE4typeERSA_(ptr noundef nonnull align 8 dereferenceable(8) %4) #21
  ret ptr %5
}

; Function Attrs: mustprogress nounwind uwtable
define linkonce_odr void @_ZNSt5tupleIJPN3gmx18AbstractPlotModule4ImplESt14default_deleteIS2_EEEC2ILb1ETnNSt9enable_ifIXclsr17_TupleConstraintsIXT_ES3_S5_EE37__is_implicitly_default_constructibleEEbE4typeELb1EEEv(ptr noundef nonnull align 8 dereferenceable(8) %0) unnamed_addr #0 comdat align 2 personality ptr @__gxx_personality_v0 {
  %2 = alloca ptr, align 8
  store ptr %0, ptr %2, align 8, !tbaa !253
  %3 = load ptr, ptr %2, align 8
  invoke void @_ZNSt11_Tuple_implILm0EJPN3gmx18AbstractPlotModule4ImplESt14default_deleteIS2_EEEC2Ev(ptr noundef nonnull align 8 dereferenceable(8) %3)
          to label %4 unwind label %5

4:                                                ; preds = %1
  ret void

5:                                                ; preds = %1
  %6 = landingpad { ptr, i32 }
          catch ptr null
  %7 = extractvalue { ptr, i32 } %6, 0
  call void @__clang_call_terminate(ptr %7) #20
  unreachable
}

; Function Attrs: mustprogress nounwind uwtable
define linkonce_odr void @_ZNSt15__uniq_ptr_implIN3gmx18AbstractPlotModule4ImplESt14default_deleteIS2_EEC2EPS2_(ptr noundef nonnull align 8 dereferenceable(8) %0, ptr noundef %1) unnamed_addr #0 comdat align 2 {
  %3 = alloca ptr, align 8
  %4 = alloca ptr, align 8
  store ptr %0, ptr %3, align 8, !tbaa !251
  store ptr %1, ptr %4, align 8, !tbaa !209
  %5 = load ptr, ptr %3, align 8
  %6 = getelementptr inbounds nuw %"class.std::__uniq_ptr_impl.28", ptr %5, i32 0, i32 0
  call void @_ZNSt5tupleIJPN3gmx18AbstractPlotModule4ImplESt14default_deleteIS2_EEEC2ILb1ETnNSt9enable_ifIXclsr17_TupleConstraintsIXT_ES3_S5_EE37__is_implicitly_default_constructibleEEbE4typeELb1EEEv(ptr noundef nonnull align 8 dereferenceable(8) %6) #21
  %7 = load ptr, ptr %4, align 8, !tbaa !209
  %8 = call noundef nonnull align 8 dereferenceable(8) ptr @_ZNSt15__uniq_ptr_implIN3gmx18AbstractPlotModule4ImplESt14default_deleteIS2_EE6_M_ptrEv(ptr noundef nonnull align 8 dereferenceable(8) %5) #21
  store ptr %7, ptr %8, align 8, !tbaa !209
  ret void
}

; Function Attrs: noinline noreturn nounwind uwtable
define linkonce_odr hidden void @__clang_call_terminate(ptr noundef %0) #11 comdat {
  %2 = call ptr @__cxa_begin_catch(ptr %0) #21
  call void @_ZSt9terminatev() #20
  unreachable
}

; Function Attrs: inlinehint mustprogress uwtable
define linkonce_odr void @_ZNSt15__uniq_ptr_dataIN3gmx18AbstractPlotModule4ImplESt14default_deleteIS2_ELb1ELb1EECI2St15__uniq_ptr_implIS2_S4_EEPS2_(ptr noundef nonnull align 8 dereferenceable(8) %0, ptr noundef %1) unnamed_addr #8 comdat align 2 {
  %3 = alloca ptr, align 8
  %4 = alloca ptr, align 8
  store ptr %0, ptr %3, align 8, !tbaa !249
  store ptr %1, ptr %4, align 8, !tbaa !209
  %5 = load ptr, ptr %3, align 8
  %6 = load ptr, ptr %4, align 8, !tbaa !209
  call void @_ZNSt15__uniq_ptr_implIN3gmx18AbstractPlotModule4ImplESt14default_deleteIS2_EEC2EPS2_(ptr noundef nonnull align 8 dereferenceable(8) %5, ptr noundef %6)
  ret void
}

; Function Attrs: inlinehint mustprogress nounwind uwtable
define linkonce_odr void @_ZN3gmx19IAnalysisDataModuleC2Ev(ptr noundef nonnull align 8 dereferenceable(8) %0) unnamed_addr #3 comdat align 2 {
  %2 = alloca ptr, align 8
  store ptr %0, ptr %2, align 8, !tbaa !247
  %3 = load ptr, ptr %2, align 8
  store ptr getelementptr inbounds inrange(-16, 80) ({ [12 x ptr] }, ptr @_ZTVN3gmx19IAnalysisDataModuleE, i32 0, i32 0, i32 2), ptr %3, align 8, !tbaa !52
  ret void
}

; Function Attrs: mustprogress nounwind uwtable
define linkonce_odr void @_ZN3gmx19IAnalysisDataModuleD2Ev(ptr noundef nonnull align 8 dereferenceable(8) %0) unnamed_addr #0 comdat align 2 {
  %2 = alloca ptr, align 8
  store ptr %0, ptr %2, align 8, !tbaa !247
  ret void
}

; Function Attrs: mustprogress nounwind uwtable
define linkonce_odr void @_ZNSt10unique_ptrIN3gmx18AbstractPlotModule4ImplESt14default_deleteIS2_EEC2IS4_vEEPS2_(ptr noundef nonnull align 8 dereferenceable(8) %0, ptr noundef %1) unnamed_addr #0 comdat align 2 personality ptr @__gxx_personality_v0 {
  %3 = alloca ptr, align 8
  %4 = alloca ptr, align 8
  store ptr %0, ptr %3, align 8, !tbaa !245
  store ptr %1, ptr %4, align 8, !tbaa !209
  %5 = load ptr, ptr %3, align 8
  %6 = getelementptr inbounds nuw %"class.std::unique_ptr.26", ptr %5, i32 0, i32 0
  %7 = load ptr, ptr %4, align 8, !tbaa !209
  invoke void @_ZNSt15__uniq_ptr_dataIN3gmx18AbstractPlotModule4ImplESt14default_deleteIS2_ELb1ELb1EECI2St15__uniq_ptr_implIS2_S4_EEPS2_(ptr noundef nonnull align 8 dereferenceable(8) %6, ptr noundef %7)
          to label %8 unwind label %9

8:                                                ; preds = %2
  ret void

9:                                                ; preds = %2
  %10 = landingpad { ptr, i32 }
          catch ptr null
  %11 = extractvalue { ptr, i32 } %10, 0
  call void @__clang_call_terminate(ptr %11) #20
  unreachable
}

; Function Attrs: inlinehint mustprogress nounwind uwtable
define linkonce_odr void @_ZN3gmx24AnalysisDataModuleSerialC2Ev(ptr noundef nonnull align 8 dereferenceable(8) %0) unnamed_addr #3 comdat align 2 {
  %2 = alloca ptr, align 8
  store ptr %0, ptr %2, align 8, !tbaa !42
  %3 = load ptr, ptr %2, align 8
  call void @_ZN3gmx19IAnalysisDataModuleC2Ev(ptr noundef nonnull align 8 dereferenceable(8) %3) #21
  store ptr getelementptr inbounds inrange(-16, 80) ({ [12 x ptr] }, ptr @_ZTVN3gmx24AnalysisDataModuleSerialE, i32 0, i32 0, i32 2), ptr %3, align 8, !tbaa !52
  ret void
}

; Function Attrs: mustprogress uwtable
define void @_ZN3gmx18AbstractPlotModuleC2ERKNS_24AnalysisDataPlotSettingsE(ptr noundef nonnull align 8 dereferenceable(16) %0, ptr noundef nonnull align 8 dereferenceable(16) %1) unnamed_addr #1 align 2 personality ptr @__gxx_personality_v0 {
  %3 = alloca ptr, align 8
  %4 = alloca ptr, align 8
  %5 = alloca ptr, align 8
  %6 = alloca i32, align 4
  store ptr %0, ptr %3, align 8, !tbaa !4
  store ptr %1, ptr %4, align 8, !tbaa !60
  %7 = load ptr, ptr %3, align 8
  call void @_ZN3gmx24AnalysisDataModuleSerialC2Ev(ptr noundef nonnull align 8 dereferenceable(8) %7) #21
  store ptr getelementptr inbounds inrange(-16, 80) ({ [12 x ptr] }, ptr @_ZTVN3gmx18AbstractPlotModuleE, i32 0, i32 0, i32 2), ptr %7, align 8, !tbaa !52
  %8 = getelementptr inbounds nuw %"class.gmx::AbstractPlotModule", ptr %7, i32 0, i32 1
  %9 = invoke noalias noundef nonnull ptr @_Znwm(i64 noundef 288) #24
          to label %10 unwind label %13

10:                                               ; preds = %2
  %11 = load ptr, ptr %4, align 8, !tbaa !60
  invoke void @_ZN3gmx18AbstractPlotModule4ImplC1ERKNS_24AnalysisDataPlotSettingsE(ptr noundef nonnull align 8 dereferenceable(284) %9, ptr noundef nonnull align 8 dereferenceable(16) %11)
          to label %12 unwind label %17

12:                                               ; preds = %10
  call void @_ZNSt10unique_ptrIN3gmx18AbstractPlotModule4ImplESt14default_deleteIS2_EEC2IS4_vEEPS2_(ptr noundef nonnull align 8 dereferenceable(8) %8, ptr noundef %9) #21
  ret void

13:                                               ; preds = %2
  %14 = landingpad { ptr, i32 }
          cleanup
  %15 = extractvalue { ptr, i32 } %14, 0
  store ptr %15, ptr %5, align 8
  %16 = extractvalue { ptr, i32 } %14, 1
  store i32 %16, ptr %6, align 4
  br label %21

17:                                               ; preds = %10
  %18 = landingpad { ptr, i32 }
          cleanup
  %19 = extractvalue { ptr, i32 } %18, 0
  store ptr %19, ptr %5, align 8
  %20 = extractvalue { ptr, i32 } %18, 1
  store i32 %20, ptr %6, align 4
  call void @_ZdlPvm(ptr noundef %9, i64 noundef 288) #22
  br label %21

21:                                               ; preds = %17, %13
  call void @_ZN3gmx19IAnalysisDataModuleD2Ev(ptr noundef nonnull align 8 dereferenceable(8) %7) #21
  br label %22

22:                                               ; preds = %21
  %23 = load ptr, ptr %5, align 8
  %24 = load i32, ptr %6, align 4
  %25 = insertvalue { ptr, i32 } poison, ptr %23, 0
  %26 = insertvalue { ptr, i32 } %25, i32 %24, 1
  resume { ptr, i32 } %26
}

; Function Attrs: mustprogress uwtable
define void @_ZN3gmx22AnalysisDataPlotModuleC2ERKNS_24AnalysisDataPlotSettingsE(ptr noundef nonnull align 8 dereferenceable(16) %0, ptr noundef nonnull align 8 dereferenceable(16) %1) unnamed_addr #1 align 2 {
  %3 = alloca ptr, align 8
  %4 = alloca ptr, align 8
  store ptr %0, ptr %3, align 8, !tbaa !46
  store ptr %1, ptr %4, align 8, !tbaa !60
  %5 = load ptr, ptr %3, align 8
  %6 = load ptr, ptr %4, align 8, !tbaa !60
  call void @_ZN3gmx18AbstractPlotModuleC2ERKNS_24AnalysisDataPlotSettingsE(ptr noundef nonnull align 8 dereferenceable(16) %5, ptr noundef nonnull align 8 dereferenceable(16) %6)
  store ptr getelementptr inbounds inrange(-16, 80) ({ [12 x ptr] }, ptr @_ZTVN3gmx22AnalysisDataPlotModuleE, i32 0, i32 0, i32 2), ptr %5, align 8, !tbaa !52
  ret void
}